; Function Attrs: mustprogress uwtable
define noundef zeroext i1 @_ZN9ThreadMgr7ReleaseEi(ptr nocapture noundef nonnull readonly align 8 dereferenceable(72) %0, i32 noundef %1) local_unnamed_addr #5 align 2 personality ptr @__gxx_personality_v0 {
  %3 = tail call noundef i32 @pthread_mutex_lock(ptr noundef nonnull @mtx) #17
  %.not.i = icmp eq i32 %3, 0
  br i1 %.not.i, label %_ZNSt5mutex4lockEv.exit, label %4

4:                                                ; preds = %2
  tail call void @_ZSt20__throw_system_errori(i32 noundef %3) #18
  unreachable

_ZNSt5mutex4lockEv.exit:                          ; preds = %2
  %5 = getelementptr inbounds nuw i8, ptr %0, i64 40
  %6 = zext i32 %1 to i64
  %7 = load ptr, ptr %5, align 8
  %8 = getelementptr inbounds i32, ptr %7, i64 %6
  %9 = load i32, ptr %8, align 4
  %10 = icmp eq i32 %9, -1
  br i1 %10, label %25, label %11

11:                                               ; preds = %_ZNSt5mutex4lockEv.exit
  %12 = load ptr, ptr %0, align 8
  %13 = lshr i32 %9, 6
  %.zext = zext nneg i32 %13 to i64
  %14 = getelementptr inbounds i64, ptr %12, i64 %.zext
  %15 = and i32 %9, 63
  %16 = zext nneg i32 %15 to i64
  %17 = shl nuw i64 1, %16
  %18 = load i64, ptr %14, align 8
  %19 = and i64 %18, %17
  %.not = icmp eq i64 %19, 0
  br i1 %.not, label %25, label %20

20:                                               ; preds = %11
  %21 = xor i64 %17, -1
  %22 = and i64 %18, %21
  store i64 %22, ptr %14, align 8
  %23 = load ptr, ptr %5, align 8
  %24 = getelementptr inbounds i32, ptr %23, i64 %6
  store i32 -1, ptr %24, align 4
  br label %25

25:                                               ; preds = %11, %_ZNSt5mutex4lockEv.exit, %20
  %.0 = phi i1 [ true, %20 ], [ false, %_ZNSt5mutex4lockEv.exit ], [ false, %11 ]
  %26 = tail call noundef i32 @pthread_mutex_unlock(ptr noundef nonnull @mtx) #17
  ret i1 %.0
}